target datalayout = "e-m:e-p270:32:32-p271:32:32-p272:64:64-i64:64-i128:128-f80:128-n8:16:32:64-S128"
target triple = "x86_64-pc-linux-gnu"

%struct._proto_node = type { ptr, ptr, ptr, ptr, ptr, ptr, ptr }

; Function Attrs: nounwind null_pointer_is_valid sspstrong uwtable
define ptr @proto_item_get_parent_nth(ptr noundef %0, i32 noundef %1) #3 {
  %3 = alloca ptr, align 8
  %4 = alloca ptr, align 8
  %5 = alloca i32, align 4
  store ptr %0, ptr %4, align 8
  store i32 %1, ptr %5, align 4
  %6 = load ptr, ptr %4, align 8
  %7 = icmp ne ptr %6, null
  br i1 %7, label %9, label %8

8:                                                ; preds = %2
  store ptr null, ptr %3, align 8
  br label %24

9:                                                ; preds = %2
  br label %10

10:                                               ; preds = %21, %9
  %11 = load i32, ptr %5, align 4
  %12 = add i32 %11, -1
  store i32 %12, ptr %5, align 4
  %13 = icmp ne i32 %11, 0
  br i1 %13, label %14, label %22

14:                                               ; preds = %10
  %15 = load ptr, ptr %4, align 8
  %16 = getelementptr inbounds nuw %struct._proto_node, ptr %15, i32 0, i32 3
  %17 = load ptr, ptr %16, align 8
  store ptr %17, ptr %4, align 8
  %18 = load ptr, ptr %4, align 8
  %19 = icmp ne ptr %18, null
  br i1 %19, label %21, label %20

20:                                               ; preds = %14
  store ptr null, ptr %3, align 8
  br label %24

21:                                               ; preds = %14
  br label %10, !llvm.loop !32

22:                                               ; preds = %10
  %23 = load ptr, ptr %4, align 8
  store ptr %23, ptr %3, align 8
  br label %24

24:                                               ; preds = %22, %20, %8
  %25 = load ptr, ptr %3, align 8
  ret ptr %25
}