; Function Attrs: nofree norecurse nosync nounwind null_pointer_is_valid sspstrong memory(read, inaccessiblemem: none) uwtable
define ptr @proto_item_get_parent_nth(ptr noundef readonly captures(address_is_null, ret: address, provenance) %0, i32 noundef %1) local_unnamed_addr #22 {
  %.not = icmp eq ptr %0, null
  br i1 %.not, label %.loopexit, label %.preheader

.preheader:                                       ; preds = %2, %3
  %.05 = phi ptr [ %6, %3 ], [ %0, %2 ]
  %.0 = phi i32 [ %4, %3 ], [ %1, %2 ]
  %.not9 = icmp eq i32 %.0, 0
  br i1 %.not9, label %.loopexit, label %3

3:                                                ; preds = %.preheader
  %4 = add i32 %.0, -1
  %5 = getelementptr inbounds nuw i8, ptr %.05, i64 24
  %6 = load ptr, ptr %5, align 8
  %.not10 = icmp eq ptr %6, null
  br i1 %.not10, label %.loopexit, label %.preheader, !llvm.loop !40

.loopexit:                                        ; preds = %.preheader, %3, %2
  %.06 = phi ptr [ null, %2 ], [ %.05, %.preheader ], [ null, %3 ]
  ret ptr %.06
}